target datalayout = "e-m:e-p270:32:32-p271:32:32-p272:64:64-i64:64-i128:128-f80:128-n8:16:32:64-S128"
target triple = "x86_64-pc-linux-gnu"

%struct._stat_tap_table_item_type = type { i32, %union.anon, %union.anon.0 }
%union.anon = type { ptr }
%union.anon.0 = type { ptr }
%struct._stat_tap_table = type { ptr, ptr, i32, i32, ptr }

; Function Attrs: null_pointer_is_valid sspstrong uwtable
define internal void @rpc_prog_stat_reset(ptr noundef %0) #0 {
  %2 = alloca ptr, align 8
  %3 = alloca i32, align 4
  %4 = alloca ptr, align 8
  store ptr %0, ptr %2, align 8
  call void @llvm.lifetime.start.p0(i64 4, ptr %3) #18
  call void @llvm.lifetime.start.p0(i64 8, ptr %4) #18
  store i32 0, ptr %3, align 4
  br label %5

5:                                                ; preds = %44, %1
  %6 = load i32, ptr %3, align 4
  %7 = load ptr, ptr %2, align 8
  %8 = getelementptr inbounds nuw %struct._stat_tap_table, ptr %7, i32 0, i32 3
  %9 = load i32, ptr %8, align 4
  %10 = icmp ult i32 %6, %9
  br i1 %10, label %11, label %47

11:                                               ; preds = %5
  %12 = load ptr, ptr %2, align 8
  %13 = load i32, ptr %3, align 4
  %14 = call ptr @stat_tap_get_field_data(ptr noundef %12, i32 noundef %13, i32 noundef 3)
  store ptr %14, ptr %4, align 8
  %15 = load ptr, ptr %4, align 8
  %16 = getelementptr inbounds nuw %struct._stat_tap_table_item_type, ptr %15, i32 0, i32 1
  store i32 0, ptr %16, align 8
  %17 = load ptr, ptr %2, align 8
  %18 = load i32, ptr %3, align 4
  %19 = load ptr, ptr %4, align 8
  call void @stat_tap_set_field_data(ptr noundef %17, i32 noundef %18, i32 noundef 3, ptr noundef %19)
  %20 = load ptr, ptr %2, align 8
  %21 = load i32, ptr %3, align 4
  %22 = call ptr @stat_tap_get_field_data(ptr noundef %20, i32 noundef %21, i32 noundef 4)
  store ptr %22, ptr %4, align 8
  %23 = load ptr, ptr %4, align 8
  %24 = getelementptr inbounds nuw %struct._stat_tap_table_item_type, ptr %23, i32 0, i32 1
  store double 0.000000e+00, ptr %24, align 8
  %25 = load ptr, ptr %2, align 8
  %26 = load i32, ptr %3, align 4
  %27 = load ptr, ptr %4, align 8
  call void @stat_tap_set_field_data(ptr noundef %25, i32 noundef %26, i32 noundef 4, ptr noundef %27)
  %28 = load ptr, ptr %2, align 8
  %29 = load i32, ptr %3, align 4
  %30 = call ptr @stat_tap_get_field_data(ptr noundef %28, i32 noundef %29, i32 noundef 5)
  store ptr %30, ptr %4, align 8
  %31 = load ptr, ptr %4, align 8
  %32 = getelementptr inbounds nuw %struct._stat_tap_table_item_type, ptr %31, i32 0, i32 1
  store double 0.000000e+00, ptr %32, align 8
  %33 = load ptr, ptr %2, align 8
  %34 = load i32, ptr %3, align 4
  %35 = load ptr, ptr %4, align 8
  call void @stat_tap_set_field_data(ptr noundef %33, i32 noundef %34, i32 noundef 5, ptr noundef %35)
  %36 = load ptr, ptr %2, align 8
  %37 = load i32, ptr %3, align 4
  %38 = call ptr @stat_tap_get_field_data(ptr noundef %36, i32 noundef %37, i32 noundef 6)
  store ptr %38, ptr %4, align 8
  %39 = load ptr, ptr %4, align 8
  %40 = getelementptr inbounds nuw %struct._stat_tap_table_item_type, ptr %39, i32 0, i32 1
  store double 0.000000e+00, ptr %40, align 8
  %41 = load ptr, ptr %2, align 8
  %42 = load i32, ptr %3, align 4
  %43 = load ptr, ptr %4, align 8
  call void @stat_tap_set_field_data(ptr noundef %41, i32 noundef %42, i32 noundef 6, ptr noundef %43)
  br label %44

44:                                               ; preds = %11
  %45 = load i32, ptr %3, align 4
  %46 = add i32 %45, 1
  store i32 %46, ptr %3, align 4
  br label %5, !llvm.loop !13

47:                                               ; preds = %5
  call void @llvm.lifetime.end.p0(i64 8, ptr %4) #18
  call void @llvm.lifetime.end.p0(i64 4, ptr %3) #18
  ret void
}