; Function Attrs: null_pointer_is_valid sspstrong uwtable
define internal void @rpc_prog_stat_reset(ptr noundef %0) #0 {
  %2 = getelementptr inbounds nuw i8, ptr %0, i64 20
  %3 = load i32, ptr %2, align 4
  %.not = icmp eq i32 %3, 0
  br i1 %.not, label %._crit_edge, label %.lr.ph

.lr.ph:                                           ; preds = %1, %.lr.ph
  %.026 = phi i32 [ %12, %.lr.ph ], [ 0, %1 ]
  %4 = tail call ptr @stat_tap_get_field_data(ptr noundef %0, i32 noundef %.026, i32 noundef 3)
  %5 = getelementptr inbounds nuw i8, ptr %4, i64 8
  store i32 0, ptr %5, align 8
  tail call void @stat_tap_set_field_data(ptr noundef %0, i32 noundef %.026, i32 noundef 3, ptr noundef %4)
  %6 = tail call ptr @stat_tap_get_field_data(ptr noundef %0, i32 noundef %.026, i32 noundef 4)
  %7 = getelementptr inbounds nuw i8, ptr %6, i64 8
  store double 0.000000e+00, ptr %7, align 8
  tail call void @stat_tap_set_field_data(ptr noundef %0, i32 noundef %.026, i32 noundef 4, ptr noundef %6)
  %8 = tail call ptr @stat_tap_get_field_data(ptr noundef %0, i32 noundef %.026, i32 noundef 5)
  %9 = getelementptr inbounds nuw i8, ptr %8, i64 8
  store double 0.000000e+00, ptr %9, align 8
  tail call void @stat_tap_set_field_data(ptr noundef %0, i32 noundef %.026, i32 noundef 5, ptr noundef %8)
  %10 = tail call ptr @stat_tap_get_field_data(ptr noundef %0, i32 noundef %.026, i32 noundef 6)
  %11 = getelementptr inbounds nuw i8, ptr %10, i64 8
  store double 0.000000e+00, ptr %11, align 8
  tail call void @stat_tap_set_field_data(ptr noundef %0, i32 noundef %.026, i32 noundef 6, ptr noundef %10)
  %12 = add nuw i32 %.026, 1
  %13 = load i32, ptr %2, align 4
  %14 = icmp ult i32 %12, %13
  br i1 %14, label %.lr.ph, label %._crit_edge, !llvm.loop !13

._crit_edge:                                      ; preds = %.lr.ph, %1
  ret void
}